target datalayout = "e-m:e-p270:32:32-p271:32:32-p272:64:64-i64:64-i128:128-f80:128-n8:16:32:64-S128"
target triple = "x86_64-pc-linux-gnu"

%struct.llhttp__internal_s = type { i32, ptr, ptr, i32, ptr, ptr, ptr, ptr, i64, i8, i8, i8, i8, i8, i16, i8, i8, i16, i16, i8, ptr }

; Function Attrs: nounwind uwtable
define void @llhttp_reset(ptr noundef %0) #0 {
  %2 = alloca ptr, align 8
  %3 = alloca i32, align 4
  %4 = alloca ptr, align 8
  %5 = alloca ptr, align 8
  %6 = alloca i16, align 2
  store ptr %0, ptr %2, align 8, !tbaa !3
  call void @llvm.lifetime.start.p0(i64 4, ptr %3) #6
  %7 = load ptr, ptr %2, align 8, !tbaa !3
  %8 = getelementptr inbounds nuw %struct.llhttp__internal_s, ptr %7, i32 0, i32 9
  %9 = load i8, ptr %8, align 8, !tbaa !12
  %10 = zext i8 %9 to i32
  store i32 %10, ptr %3, align 4, !tbaa !8
  call void @llvm.lifetime.start.p0(i64 8, ptr %4) #6
  %11 = load ptr, ptr %2, align 8, !tbaa !3
  %12 = getelementptr inbounds nuw %struct.llhttp__internal_s, ptr %11, i32 0, i32 20
  %13 = load ptr, ptr %12, align 8, !tbaa !17
  store ptr %13, ptr %4, align 8, !tbaa !10
  call void @llvm.lifetime.start.p0(i64 8, ptr %5) #6
  %14 = load ptr, ptr %2, align 8, !tbaa !3
  %15 = getelementptr inbounds nuw %struct.llhttp__internal_s, ptr %14, i32 0, i32 6
  %16 = load ptr, ptr %15, align 8, !tbaa !23
  store ptr %16, ptr %5, align 8, !tbaa !24
  call void @llvm.lifetime.start.p0(i64 2, ptr %6) #6
  %17 = load ptr, ptr %2, align 8, !tbaa !3
  %18 = getelementptr inbounds nuw %struct.llhttp__internal_s, ptr %17, i32 0, i32 14
  %19 = load i16, ptr %18, align 2, !tbaa !25
  store i16 %19, ptr %6, align 2, !tbaa !26
  %20 = load ptr, ptr %2, align 8, !tbaa !3
  %21 = call i32 @llhttp__internal_init(ptr noundef %20)
  %22 = load i32, ptr %3, align 4, !tbaa !8
  %23 = trunc i32 %22 to i8
  %24 = load ptr, ptr %2, align 8, !tbaa !3
  %25 = getelementptr inbounds nuw %struct.llhttp__internal_s, ptr %24, i32 0, i32 9
  store i8 %23, ptr %25, align 8, !tbaa !12
  %26 = load ptr, ptr %4, align 8, !tbaa !10
  %27 = load ptr, ptr %2, align 8, !tbaa !3
  %28 = getelementptr inbounds nuw %struct.llhttp__internal_s, ptr %27, i32 0, i32 20
  store ptr %26, ptr %28, align 8, !tbaa !17
  %29 = load ptr, ptr %5, align 8, !tbaa !24
  %30 = load ptr, ptr %2, align 8, !tbaa !3
  %31 = getelementptr inbounds nuw %struct.llhttp__internal_s, ptr %30, i32 0, i32 6
  store ptr %29, ptr %31, align 8, !tbaa !23
  %32 = load i16, ptr %6, align 2, !tbaa !26
  %33 = load ptr, ptr %2, align 8, !tbaa !3
  %34 = getelementptr inbounds nuw %struct.llhttp__internal_s, ptr %33, i32 0, i32 14
  store i16 %32, ptr %34, align 2, !tbaa !25
  call void @llvm.lifetime.end.p0(i64 2, ptr %6) #6
  call void @llvm.lifetime.end.p0(i64 8, ptr %5) #6
  call void @llvm.lifetime.end.p0(i64 8, ptr %4) #6
  call void @llvm.lifetime.end.p0(i64 4, ptr %3) #6
  ret void
}