; Function Attrs: nounwind uwtable
define void @llhttp_reset(ptr noundef %0) local_unnamed_addr #0 {
  %2 = getelementptr inbounds nuw i8, ptr %0, i64 72
  %3 = load i8, ptr %2, align 8, !tbaa !3
  %4 = getelementptr inbounds nuw i8, ptr %0, i64 88
  %5 = load ptr, ptr %4, align 8, !tbaa !12
  %6 = getelementptr inbounds nuw i8, ptr %0, i64 48
  %7 = load ptr, ptr %6, align 8, !tbaa !18
  %8 = getelementptr inbounds nuw i8, ptr %0, i64 78
  %9 = load i16, ptr %8, align 2, !tbaa !19
  %10 = tail call i32 @llhttp__internal_init(ptr noundef %0) #10
  store i8 %3, ptr %2, align 8, !tbaa !3
  store ptr %5, ptr %4, align 8, !tbaa !12
  store ptr %7, ptr %6, align 8, !tbaa !18
  store i16 %9, ptr %8, align 2, !tbaa !19
  ret void
}